target datalayout = "e-m:e-p270:32:32-p271:32:32-p272:64:64-i64:64-i128:128-f80:128-n8:16:32:64-S128"
target triple = "x86_64-pc-linux-gnu"

%"class.std::__cxx11::basic_string" = type { %"struct.std::__cxx11::basic_string<char>::_Alloc_hider", i64, %union.anon }
%"struct.std::__cxx11::basic_string<char>::_Alloc_hider" = type { ptr }
%union.anon = type { i64, [8 x i8] }
%"class.std::__shared_count" = type { ptr }
%"class.std::shared_ptr.6" = type { %"class.std::__shared_ptr.7" }
%"class.std::__shared_ptr.7" = type { ptr, %"class.std::__shared_count" }
%"class.std::vector.12" = type { %"struct.std::_Bvector_base" }
%"struct.std::_Bvector_base" = type { %"struct.std::_Bvector_base<std::allocator<bool>>::_Bvector_impl" }
%"struct.std::_Bvector_base<std::allocator<bool>>::_Bvector_impl" = type { %"struct.std::_Bvector_base<std::allocator<bool>>::_Bvector_impl_data" }
%"struct.std::_Bvector_base<std::allocator<bool>>::_Bvector_impl_data" = type { %"struct.std::_Bit_iterator", %"struct.std::_Bit_iterator", ptr }
%"struct.std::_Bit_iterator" = type { %"struct.std::_Bit_iterator_base.base", [4 x i8] }
%"struct.std::_Bit_iterator_base.base" = type <{ ptr, i32 }>
%"class.open_spiel::deep_sea::DeepSeaState" = type { %"class.open_spiel::State.base", i32, double, %"class.std::vector.12", i32, i32, %"class.std::vector.12" }
%"class.open_spiel::State.base" = type <{ ptr, %"class.std::shared_ptr.6", i32, i32, %"class.std::vector", i32 }>
%"class.std::vector" = type { %"struct.std::_Vector_base" }
%"struct.std::_Vector_base" = type { %"struct.std::_Vector_base<open_spiel::State::PlayerAction, std::allocator<open_spiel::State::PlayerAction>>::_Vector_impl" }
%"struct.std::_Vector_base<open_spiel::State::PlayerAction, std::allocator<open_spiel::State::PlayerAction>>::_Vector_impl" = type { %"struct.std::_Vector_base<open_spiel::State::PlayerAction, std::allocator<open_spiel::State::PlayerAction>>::_Vector_impl_data" }
%"struct.std::_Vector_base<open_spiel::State::PlayerAction, std::allocator<open_spiel::State::PlayerAction>>::_Vector_impl_data" = type { ptr, ptr, ptr }
%"class.open_spiel::State" = type <{ ptr, %"class.std::shared_ptr.6", i32, i32, %"class.std::vector", i32, [4 x i8] }>
%"class.absl::debian2::Span" = type { ptr, i64 }
%class.anon = type { i8 }

@.str.9 = private unnamed_addr constant [136 x i8] c"generated/home/dtcxzyw/WorkSpace/Projects/compilers/llvm-opt-benchmark/bench/openspiel/open_spiel/open_spiel/games/deep_sea/deep_sea.cc\00", align 1
@.str.10 = private unnamed_addr constant [2 x i8] c":\00", align 1
@.str.14 = private unnamed_addr constant [2 x i8] c" \00", align 1
@.str.16 = private unnamed_addr constant [8 x i8] c"\0Aplayer\00", align 1
@.str.17 = private unnamed_addr constant [4 x i8] c" = \00", align 1
@.str.18 = private unnamed_addr constant [7 x i8] c", 0 = \00", align 1
@.str.24 = private unnamed_addr constant [12 x i8] c"player >= 0\00", align 1
@.str.25 = private unnamed_addr constant [22 x i8] c"player < num_players_\00", align 1
@.str.26 = private unnamed_addr constant [18 x i8] c", num_players_ = \00", align 1
@.str.27 = private unnamed_addr constant [31 x i8] c"values.size() == size_ * size_\00", align 1
@.str.28 = private unnamed_addr constant [15 x i8] c"\0Avalues.size()\00", align 1
@.str.29 = private unnamed_addr constant [19 x i8] c", size_ * size_ = \00", align 1

; Function Attrs: mustprogress nounwind uwtable
define linkonce_odr void @_ZSt9__fill_a1IPfdEN9__gnu_cxx11__enable_ifIXsr11__is_scalarIT0_EE7__valueEvE6__typeET_S6_RKS3_(ptr noundef %0, ptr noundef %1, ptr noundef nonnull align 8 dereferenceable(8) %2) #5 comdat {
  %4 = alloca ptr, align 8
  %5 = alloca ptr, align 8
  %6 = alloca ptr, align 8
  %7 = alloca double, align 8
  store ptr %0, ptr %4, align 8
  store ptr %1, ptr %5, align 8
  store ptr %2, ptr %6, align 8
  %8 = load ptr, ptr %6, align 8
  %9 = load double, ptr %8, align 8
  store double %9, ptr %7, align 8
  br label %10

10:                                               ; preds = %18, %3
  %11 = load ptr, ptr %4, align 8
  %12 = load ptr, ptr %5, align 8
  %13 = icmp ne ptr %11, %12
  br i1 %13, label %14, label %21

14:                                               ; preds = %10
  %15 = load double, ptr %7, align 8
  %16 = fptrunc double %15 to float
  %17 = load ptr, ptr %4, align 8
  store float %16, ptr %17, align 4
  br label %18

18:                                               ; preds = %14
  %19 = load ptr, ptr %4, align 8
  %20 = getelementptr inbounds float, ptr %19, i32 1
  store ptr %20, ptr %4, align 8
  br label %10, !llvm.loop !16

21:                                               ; preds = %10
  ret void
}

; Function Attrs: noreturn nounwind uwtable
define linkonce_odr hidden void @__clang_call_terminate(ptr noundef %0) #11 comdat {
  %2 = call ptr @__cxa_begin_catch(ptr %0) #3
  call void @_ZSt9terminatev() #17
  unreachable
}

; Function Attrs: mustprogress nounwind uwtable
define linkonce_odr void @_ZZNK4absl7debian24SpanIfEixEmENKUlvE_clEv(ptr noundef nonnull align 1 dereferenceable(1) %0) #5 comdat align 2 {
  %2 = alloca ptr, align 8
  store ptr %0, ptr %2, align 8
  br label %3

3:                                                ; preds = %1
  call void @llvm.trap()
  unreachable

4:                                                ; No predecessors!
  ret void
}

; Function Attrs: mustprogress uwtable
define linkonce_odr void @_ZSt8__fill_aIPfdEvT_S1_RKT0_(ptr noundef %0, ptr noundef %1, ptr noundef nonnull align 8 dereferenceable(8) %2) #4 comdat {
  %4 = alloca ptr, align 8
  %5 = alloca ptr, align 8
  %6 = alloca ptr, align 8
  store ptr %0, ptr %4, align 8
  store ptr %1, ptr %5, align 8
  store ptr %2, ptr %6, align 8
  %7 = load ptr, ptr %4, align 8
  %8 = load ptr, ptr %5, align 8
  %9 = load ptr, ptr %6, align 8
  call void @_ZSt9__fill_a1IPfdEN9__gnu_cxx11__enable_ifIXsr11__is_scalarIT0_EE7__valueEvE6__typeET_S6_RKS3_(ptr noundef %7, ptr noundef %8, ptr noundef nonnull align 8 dereferenceable(8) %9)
  ret void
}

; Function Attrs: mustprogress nounwind uwtable
define linkonce_odr noundef ptr @_ZNK4absl7debian24SpanIfE4dataEv(ptr noundef nonnull align 8 dereferenceable(16) %0) #5 comdat align 2 {
  %2 = alloca ptr, align 8
  store ptr %0, ptr %2, align 8
  %3 = load ptr, ptr %2, align 8
  %4 = getelementptr inbounds nuw %"class.absl::debian2::Span", ptr %3, i32 0, i32 0
  %5 = load ptr, ptr %4, align 8
  ret ptr %5
}

; Function Attrs: mustprogress nounwind uwtable
define linkonce_odr noundef nonnull align 4 dereferenceable(4) ptr @_ZNK4absl7debian24SpanIfEixEm(ptr noundef nonnull align 8 dereferenceable(16) %0, i64 noundef %1) #5 comdat align 2 personality ptr @__gxx_personality_v0 {
  %3 = alloca ptr, align 8
  %4 = alloca i64, align 8
  %5 = alloca %class.anon, align 1
  store ptr %0, ptr %3, align 8
  store i64 %1, ptr %4, align 8
  %6 = load ptr, ptr %3, align 8
  %7 = load i64, ptr %4, align 8
  %8 = call noundef i64 @_ZNK4absl7debian24SpanIfE4sizeEv(ptr noundef nonnull align 8 dereferenceable(16) %6) #3
  %9 = icmp ult i64 %7, %8
  br i1 %9, label %10, label %11

10:                                               ; preds = %2
  br label %13

11:                                               ; preds = %2
  invoke void @_ZZNK4absl7debian24SpanIfEixEmENKUlvE_clEv(ptr noundef nonnull align 1 dereferenceable(1) %5)
          to label %12 unwind label %17

12:                                               ; preds = %11
  br label %13

13:                                               ; preds = %12, %10
  %14 = call noundef ptr @_ZNK4absl7debian24SpanIfE4dataEv(ptr noundef nonnull align 8 dereferenceable(16) %6) #3
  %15 = load i64, ptr %4, align 8
  %16 = getelementptr inbounds float, ptr %14, i64 %15
  ret ptr %16

17:                                               ; preds = %11
  %18 = landingpad { ptr, i32 }
          catch ptr null
  %19 = extractvalue { ptr, i32 } %18, 0
  call void @__clang_call_terminate(ptr %19) #17
  unreachable
}

; Function Attrs: mustprogress nounwind uwtable
define linkonce_odr noundef i64 @_ZNK4absl7debian24SpanIfE4sizeEv(ptr noundef nonnull align 8 dereferenceable(16) %0) #5 comdat align 2 {
  %2 = alloca ptr, align 8
  store ptr %0, ptr %2, align 8
  %3 = load ptr, ptr %2, align 8
  %4 = getelementptr inbounds nuw %"class.absl::debian2::Span", ptr %3, i32 0, i32 1
  %5 = load i64, ptr %4, align 8
  ret i64 %5
}

; Function Attrs: mustprogress uwtable
define linkonce_odr void @_ZSt4fillIPfdEvT_S1_RKT0_(ptr noundef %0, ptr noundef %1, ptr noundef nonnull align 8 dereferenceable(8) %2) #4 comdat {
  %4 = alloca ptr, align 8
  %5 = alloca ptr, align 8
  %6 = alloca ptr, align 8
  store ptr %0, ptr %4, align 8
  store ptr %1, ptr %5, align 8
  store ptr %2, ptr %6, align 8
  %7 = load ptr, ptr %4, align 8
  %8 = load ptr, ptr %5, align 8
  %9 = load ptr, ptr %6, align 8
  call void @_ZSt8__fill_aIPfdEvT_S1_RKT0_(ptr noundef %7, ptr noundef %8, ptr noundef nonnull align 8 dereferenceable(8) %9)
  ret void
}

; Function Attrs: mustprogress nounwind uwtable
define linkonce_odr noundef ptr @_ZNK4absl7debian24SpanIfE3endEv(ptr noundef nonnull align 8 dereferenceable(16) %0) #5 comdat align 2 {
  %2 = alloca ptr, align 8
  store ptr %0, ptr %2, align 8
  %3 = load ptr, ptr %2, align 8
  %4 = call noundef ptr @_ZNK4absl7debian24SpanIfE4dataEv(ptr noundef nonnull align 8 dereferenceable(16) %3) #3
  %5 = call noundef i64 @_ZNK4absl7debian24SpanIfE4sizeEv(ptr noundef nonnull align 8 dereferenceable(16) %3) #3
  %6 = getelementptr inbounds float, ptr %4, i64 %5
  ret ptr %6
}

; Function Attrs: mustprogress nounwind uwtable
define linkonce_odr noundef ptr @_ZNK4absl7debian24SpanIfE5beginEv(ptr noundef nonnull align 8 dereferenceable(16) %0) #5 comdat align 2 {
  %2 = alloca ptr, align 8
  store ptr %0, ptr %2, align 8
  %3 = load ptr, ptr %2, align 8
  %4 = call noundef ptr @_ZNK4absl7debian24SpanIfE4dataEv(ptr noundef nonnull align 8 dereferenceable(16) %3) #3
  ret ptr %4
}

; Function Attrs: mustprogress uwtable
define void @_ZNK10open_spiel8deep_sea12DeepSeaState17ObservationTensorEiN4absl7debian24SpanIfEE(ptr noundef nonnull align 8 dereferenceable(160) %0, i32 noundef %1, ptr %2, i64 %3) unnamed_addr #4 align 2 personality ptr @__gxx_personality_v0 {
  %5 = alloca %"class.absl::debian2::Span", align 8
  %6 = alloca ptr, align 8
  %7 = alloca i32, align 4
  %8 = alloca i32, align 4
  %9 = alloca i32, align 4
  %10 = alloca %"class.std::__cxx11::basic_string", align 8
  %11 = alloca i32, align 4
  %12 = alloca ptr, align 8
  %13 = alloca i32, align 4
  %14 = alloca i32, align 4
  %15 = alloca i32, align 4
  %16 = alloca %"class.std::__cxx11::basic_string", align 8
  %17 = alloca i32, align 4
  %18 = alloca double, align 8
  %19 = alloca i64, align 8
  %20 = alloca i32, align 4
  %21 = alloca %"class.std::__cxx11::basic_string", align 8
  %22 = alloca i32, align 4
  %23 = getelementptr inbounds nuw { ptr, i64 }, ptr %5, i32 0, i32 0
  store ptr %2, ptr %23, align 8
  %24 = getelementptr inbounds nuw { ptr, i64 }, ptr %5, i32 0, i32 1
  store i64 %3, ptr %24, align 8
  store ptr %0, ptr %6, align 8
  store i32 %1, ptr %7, align 4
  %25 = load ptr, ptr %6, align 8
  br label %26

26:                                               ; preds = %4
  %27 = load i32, ptr %7, align 4
  store i32 %27, ptr %8, align 4
  store i32 0, ptr %9, align 4
  %28 = load i32, ptr %8, align 4
  %29 = load i32, ptr %9, align 4
  %30 = icmp sge i32 %28, %29
  br i1 %30, label %37, label %31

31:                                               ; preds = %26
  store i32 142, ptr %11, align 4
  call void @_ZN10open_spiel8internal11SpielStrCatIJRA136_KcRA2_S2_iS6_RA12_S2_RA8_S2_RA4_S2_RiRA7_S2_SD_EEENSt7__cxx1112basic_stringIcSt11char_traitsIcESaIcEEEDpOT_(ptr dead_on_unwind writable sret(%"class.std::__cxx11::basic_string") align 8 %10, ptr noundef nonnull align 1 dereferenceable(136) @.str.9, ptr noundef nonnull align 1 dereferenceable(2) @.str.10, ptr noundef nonnull align 4 dereferenceable(4) %11, ptr noundef nonnull align 1 dereferenceable(2) @.str.14, ptr noundef nonnull align 1 dereferenceable(12) @.str.24, ptr noundef nonnull align 1 dereferenceable(8) @.str.16, ptr noundef nonnull align 1 dereferenceable(4) @.str.17, ptr noundef nonnull align 4 dereferenceable(4) %8, ptr noundef nonnull align 1 dereferenceable(7) @.str.18, ptr noundef nonnull align 4 dereferenceable(4) %9)
  invoke void @_ZN10open_spiel15SpielFatalErrorERKNSt7__cxx1112basic_stringIcSt11char_traitsIcESaIcEEE(ptr noundef nonnull align 8 dereferenceable(32) %10) #14
          to label %32 unwind label %33

32:                                               ; preds = %31
  unreachable

33:                                               ; preds = %31
  %34 = landingpad { ptr, i32 }
          cleanup
  %35 = extractvalue { ptr, i32 } %34, 0
  store ptr %35, ptr %12, align 8
  %36 = extractvalue { ptr, i32 } %34, 1
  store i32 %36, ptr %13, align 4
  call void @_ZNSt7__cxx1112basic_stringIcSt11char_traitsIcESaIcEED1Ev(ptr noundef nonnull align 8 dereferenceable(32) %10) #3
  br label %98

37:                                               ; preds = %26
  br label %38

38:                                               ; preds = %37
  br label %39

39:                                               ; preds = %38
  %40 = load i32, ptr %7, align 4
  store i32 %40, ptr %14, align 4
  %41 = getelementptr inbounds nuw %"class.open_spiel::State", ptr %25, i32 0, i32 3
  %42 = load i32, ptr %41, align 4
  store i32 %42, ptr %15, align 4
  %43 = load i32, ptr %14, align 4
  %44 = load i32, ptr %15, align 4
  %45 = icmp slt i32 %43, %44
  br i1 %45, label %52, label %46

46:                                               ; preds = %39
  store i32 143, ptr %17, align 4
  call void @_ZN10open_spiel8internal11SpielStrCatIJRA136_KcRA2_S2_iS6_RA22_S2_RA8_S2_RA4_S2_RiRA18_S2_SD_EEENSt7__cxx1112basic_stringIcSt11char_traitsIcESaIcEEEDpOT_(ptr dead_on_unwind writable sret(%"class.std::__cxx11::basic_string") align 8 %16, ptr noundef nonnull align 1 dereferenceable(136) @.str.9, ptr noundef nonnull align 1 dereferenceable(2) @.str.10, ptr noundef nonnull align 4 dereferenceable(4) %17, ptr noundef nonnull align 1 dereferenceable(2) @.str.14, ptr noundef nonnull align 1 dereferenceable(22) @.str.25, ptr noundef nonnull align 1 dereferenceable(8) @.str.16, ptr noundef nonnull align 1 dereferenceable(4) @.str.17, ptr noundef nonnull align 4 dereferenceable(4) %14, ptr noundef nonnull align 1 dereferenceable(18) @.str.26, ptr noundef nonnull align 4 dereferenceable(4) %15)
  invoke void @_ZN10open_spiel15SpielFatalErrorERKNSt7__cxx1112basic_stringIcSt11char_traitsIcESaIcEEE(ptr noundef nonnull align 8 dereferenceable(32) %16) #14
          to label %47 unwind label %48

47:                                               ; preds = %46
  unreachable

48:                                               ; preds = %46
  %49 = landingpad { ptr, i32 }
          cleanup
  %50 = extractvalue { ptr, i32 } %49, 0
  store ptr %50, ptr %12, align 8
  %51 = extractvalue { ptr, i32 } %49, 1
  store i32 %51, ptr %13, align 4
  call void @_ZNSt7__cxx1112basic_stringIcSt11char_traitsIcESaIcEED1Ev(ptr noundef nonnull align 8 dereferenceable(32) %16) #3
  br label %98

52:                                               ; preds = %39
  br label %53

53:                                               ; preds = %52
  %54 = call noundef ptr @_ZNK4absl7debian24SpanIfE5beginEv(ptr noundef nonnull align 8 dereferenceable(16) %5) #3
  %55 = call noundef ptr @_ZNK4absl7debian24SpanIfE3endEv(ptr noundef nonnull align 8 dereferenceable(16) %5) #3
  store double 0.000000e+00, ptr %18, align 8
  call void @_ZSt4fillIPfdEvT_S1_RKT0_(ptr noundef %54, ptr noundef %55, ptr noundef nonnull align 8 dereferenceable(8) %18)
  br label %56

56:                                               ; preds = %53
  %57 = call noundef i64 @_ZNK4absl7debian24SpanIfE4sizeEv(ptr noundef nonnull align 8 dereferenceable(16) %5) #3
  store i64 %57, ptr %19, align 8
  %58 = getelementptr inbounds nuw %"class.open_spiel::deep_sea::DeepSeaState", ptr %25, i32 0, i32 1
  %59 = load i32, ptr %58, align 4
  %60 = getelementptr inbounds nuw %"class.open_spiel::deep_sea::DeepSeaState", ptr %25, i32 0, i32 1
  %61 = load i32, ptr %60, align 4
  %62 = mul nsw i32 %59, %61
  store i32 %62, ptr %20, align 4
  %63 = load i64, ptr %19, align 8
  %64 = load i32, ptr %20, align 4
  %65 = sext i32 %64 to i64
  %66 = icmp eq i64 %63, %65
  br i1 %66, label %73, label %67

67:                                               ; preds = %56
  store i32 146, ptr %22, align 4
  call void @_ZN10open_spiel8internal11SpielStrCatIJRA136_KcRA2_S2_iS6_RA31_S2_RA15_S2_RA4_S2_RmRA19_S2_RiEEENSt7__cxx1112basic_stringIcSt11char_traitsIcESaIcEEEDpOT_(ptr dead_on_unwind writable sret(%"class.std::__cxx11::basic_string") align 8 %21, ptr noundef nonnull align 1 dereferenceable(136) @.str.9, ptr noundef nonnull align 1 dereferenceable(2) @.str.10, ptr noundef nonnull align 4 dereferenceable(4) %22, ptr noundef nonnull align 1 dereferenceable(2) @.str.14, ptr noundef nonnull align 1 dereferenceable(31) @.str.27, ptr noundef nonnull align 1 dereferenceable(15) @.str.28, ptr noundef nonnull align 1 dereferenceable(4) @.str.17, ptr noundef nonnull align 8 dereferenceable(8) %19, ptr noundef nonnull align 1 dereferenceable(19) @.str.29, ptr noundef nonnull align 4 dereferenceable(4) %20)
  invoke void @_ZN10open_spiel15SpielFatalErrorERKNSt7__cxx1112basic_stringIcSt11char_traitsIcESaIcEEE(ptr noundef nonnull align 8 dereferenceable(32) %21) #14
          to label %68 unwind label %69

68:                                               ; preds = %67
  unreachable

69:                                               ; preds = %67
  %70 = landingpad { ptr, i32 }
          cleanup
  %71 = extractvalue { ptr, i32 } %70, 0
  store ptr %71, ptr %12, align 8
  %72 = extractvalue { ptr, i32 } %70, 1
  store i32 %72, ptr %13, align 4
  call void @_ZNSt7__cxx1112basic_stringIcSt11char_traitsIcESaIcEED1Ev(ptr noundef nonnull align 8 dereferenceable(32) %21) #3
  br label %98

73:                                               ; preds = %56
  br label %74

74:                                               ; preds = %73
  %75 = getelementptr inbounds nuw %"class.open_spiel::deep_sea::DeepSeaState", ptr %25, i32 0, i32 4
  %76 = load i32, ptr %75, align 8
  %77 = getelementptr inbounds nuw %"class.open_spiel::deep_sea::DeepSeaState", ptr %25, i32 0, i32 1
  %78 = load i32, ptr %77, align 4
  %79 = icmp slt i32 %76, %78
  br i1 %79, label %80, label %97

80:                                               ; preds = %74
  %81 = getelementptr inbounds nuw %"class.open_spiel::deep_sea::DeepSeaState", ptr %25, i32 0, i32 5
  %82 = load i32, ptr %81, align 4
  %83 = getelementptr inbounds nuw %"class.open_spiel::deep_sea::DeepSeaState", ptr %25, i32 0, i32 1
  %84 = load i32, ptr %83, align 4
  %85 = icmp slt i32 %82, %84
  br i1 %85, label %86, label %97

86:                                               ; preds = %80
  %87 = getelementptr inbounds nuw %"class.open_spiel::deep_sea::DeepSeaState", ptr %25, i32 0, i32 4
  %88 = load i32, ptr %87, align 8
  %89 = getelementptr inbounds nuw %"class.open_spiel::deep_sea::DeepSeaState", ptr %25, i32 0, i32 1
  %90 = load i32, ptr %89, align 4
  %91 = mul nsw i32 %88, %90
  %92 = getelementptr inbounds nuw %"class.open_spiel::deep_sea::DeepSeaState", ptr %25, i32 0, i32 5
  %93 = load i32, ptr %92, align 4
  %94 = add nsw i32 %91, %93
  %95 = sext i32 %94 to i64
  %96 = call noundef nonnull align 4 dereferenceable(4) ptr @_ZNK4absl7debian24SpanIfEixEm(ptr noundef nonnull align 8 dereferenceable(16) %5, i64 noundef %95) #3
  store float 1.000000e+00, ptr %96, align 4
  br label %97

97:                                               ; preds = %86, %80, %74
  ret void

98:                                               ; preds = %69, %48, %33
  %99 = load ptr, ptr %12, align 8
  %100 = load i32, ptr %13, align 4
  %101 = insertvalue { ptr, i32 } poison, ptr %99, 0
  %102 = insertvalue { ptr, i32 } %101, i32 %100, 1
  resume { ptr, i32 } %102
}