; Function Attrs: mustprogress uwtable
define void @_ZNK10open_spiel8deep_sea12DeepSeaState17ObservationTensorEiN4absl7debian24SpanIfEE(ptr nocapture noundef nonnull readonly align 8 dereferenceable(160) %0, i32 noundef %1, ptr nocapture writeonly %2, i64 %3) unnamed_addr #3 align 2 personality ptr @__gxx_personality_v0 {
  %5 = alloca i32, align 4
  %6 = alloca i32, align 4
  %7 = alloca %"class.std::__cxx11::basic_string", align 8
  %8 = alloca i32, align 4
  %9 = alloca i32, align 4
  %10 = alloca i32, align 4
  %11 = alloca %"class.std::__cxx11::basic_string", align 8
  %12 = alloca i32, align 4
  %13 = alloca i64, align 8
  %14 = alloca i32, align 4
  %15 = alloca %"class.std::__cxx11::basic_string", align 8
  %16 = alloca i32, align 4
  store i32 %1, ptr %5, align 4
  store i32 0, ptr %6, align 4
  %17 = icmp sgt i32 %1, -1
  br i1 %17, label %22, label %18

18:                                               ; preds = %4
  store i32 142, ptr %8, align 4
  call void @_ZN10open_spiel8internal11SpielStrCatIJRA136_KcRA2_S2_iS6_RA12_S2_RA8_S2_RA4_S2_RiRA7_S2_SD_EEENSt7__cxx1112basic_stringIcSt11char_traitsIcESaIcEEEDpOT_(ptr dead_on_unwind nonnull writable sret(%"class.std::__cxx11::basic_string") align 8 %7, ptr noundef nonnull align 1 dereferenceable(136) @.str.9, ptr noundef nonnull align 1 dereferenceable(2) @.str.10, ptr noundef nonnull align 4 dereferenceable(4) %8, ptr noundef nonnull align 1 dereferenceable(2) @.str.14, ptr noundef nonnull align 1 dereferenceable(12) @.str.24, ptr noundef nonnull align 1 dereferenceable(8) @.str.16, ptr noundef nonnull align 1 dereferenceable(4) @.str.17, ptr noundef nonnull align 4 dereferenceable(4) %5, ptr noundef nonnull align 1 dereferenceable(7) @.str.18, ptr noundef nonnull align 4 dereferenceable(4) %6)
  invoke void @_ZN10open_spiel15SpielFatalErrorERKNSt7__cxx1112basic_stringIcSt11char_traitsIcESaIcEEE(ptr noundef nonnull align 8 dereferenceable(32) %7) #23
          to label %19 unwind label %20

19:                                               ; preds = %18
  unreachable

20:                                               ; preds = %18
  %21 = landingpad { ptr, i32 }
          cleanup
  br label %57

22:                                               ; preds = %4
  store i32 %1, ptr %9, align 4
  %23 = getelementptr inbounds nuw i8, ptr %0, i64 28
  %24 = load i32, ptr %23, align 4
  store i32 %24, ptr %10, align 4
  %25 = icmp slt i32 %1, %24
  br i1 %25, label %30, label %26

26:                                               ; preds = %22
  store i32 143, ptr %12, align 4
  call void @_ZN10open_spiel8internal11SpielStrCatIJRA136_KcRA2_S2_iS6_RA22_S2_RA8_S2_RA4_S2_RiRA18_S2_SD_EEENSt7__cxx1112basic_stringIcSt11char_traitsIcESaIcEEEDpOT_(ptr dead_on_unwind nonnull writable sret(%"class.std::__cxx11::basic_string") align 8 %11, ptr noundef nonnull align 1 dereferenceable(136) @.str.9, ptr noundef nonnull align 1 dereferenceable(2) @.str.10, ptr noundef nonnull align 4 dereferenceable(4) %12, ptr noundef nonnull align 1 dereferenceable(2) @.str.14, ptr noundef nonnull align 1 dereferenceable(22) @.str.25, ptr noundef nonnull align 1 dereferenceable(8) @.str.16, ptr noundef nonnull align 1 dereferenceable(4) @.str.17, ptr noundef nonnull align 4 dereferenceable(4) %9, ptr noundef nonnull align 1 dereferenceable(18) @.str.26, ptr noundef nonnull align 4 dereferenceable(4) %10)
  invoke void @_ZN10open_spiel15SpielFatalErrorERKNSt7__cxx1112basic_stringIcSt11char_traitsIcESaIcEEE(ptr noundef nonnull align 8 dereferenceable(32) %11) #23
          to label %27 unwind label %28

27:                                               ; preds = %26
  unreachable

28:                                               ; preds = %26
  %29 = landingpad { ptr, i32 }
          cleanup
  br label %57

30:                                               ; preds = %22
  %.not6.i.i.i = icmp eq i64 %3, 0
  br i1 %.not6.i.i.i, label %_ZSt4fillIPfdEvT_S1_RKT0_.exit, label %.lr.ph.i.i.i.preheader

.lr.ph.i.i.i.preheader:                           ; preds = %30
  %31 = shl i64 %3, 2
  tail call void @llvm.memset.p0.i64(ptr align 4 %2, i8 0, i64 %31, i1 false)
  br label %_ZSt4fillIPfdEvT_S1_RKT0_.exit

_ZSt4fillIPfdEvT_S1_RKT0_.exit:                   ; preds = %.lr.ph.i.i.i.preheader, %30
  store i64 %3, ptr %13, align 8
  %32 = getelementptr inbounds nuw i8, ptr %0, i64 60
  %33 = load i32, ptr %32, align 4
  %34 = mul nsw i32 %33, %33
  store i32 %34, ptr %14, align 4
  %35 = zext nneg i32 %34 to i64
  %36 = icmp eq i64 %3, %35
  br i1 %36, label %41, label %37

37:                                               ; preds = %_ZSt4fillIPfdEvT_S1_RKT0_.exit
  store i32 146, ptr %16, align 4
  call void @_ZN10open_spiel8internal11SpielStrCatIJRA136_KcRA2_S2_iS6_RA31_S2_RA15_S2_RA4_S2_RmRA19_S2_RiEEENSt7__cxx1112basic_stringIcSt11char_traitsIcESaIcEEEDpOT_(ptr dead_on_unwind nonnull writable sret(%"class.std::__cxx11::basic_string") align 8 %15, ptr noundef nonnull align 1 dereferenceable(136) @.str.9, ptr noundef nonnull align 1 dereferenceable(2) @.str.10, ptr noundef nonnull align 4 dereferenceable(4) %16, ptr noundef nonnull align 1 dereferenceable(2) @.str.14, ptr noundef nonnull align 1 dereferenceable(31) @.str.27, ptr noundef nonnull align 1 dereferenceable(15) @.str.28, ptr noundef nonnull align 1 dereferenceable(4) @.str.17, ptr noundef nonnull align 8 dereferenceable(8) %13, ptr noundef nonnull align 1 dereferenceable(19) @.str.29, ptr noundef nonnull align 4 dereferenceable(4) %14)
  invoke void @_ZN10open_spiel15SpielFatalErrorERKNSt7__cxx1112basic_stringIcSt11char_traitsIcESaIcEEE(ptr noundef nonnull align 8 dereferenceable(32) %15) #23
          to label %38 unwind label %39

38:                                               ; preds = %37
  unreachable

39:                                               ; preds = %37
  %40 = landingpad { ptr, i32 }
          cleanup
  br label %57

41:                                               ; preds = %_ZSt4fillIPfdEvT_S1_RKT0_.exit
  %42 = getelementptr inbounds nuw i8, ptr %0, i64 112
  %43 = load i32, ptr %42, align 8
  %44 = icmp slt i32 %43, %33
  br i1 %44, label %45, label %56

45:                                               ; preds = %41
  %46 = getelementptr inbounds nuw i8, ptr %0, i64 116
  %47 = load i32, ptr %46, align 4
  %48 = icmp slt i32 %47, %33
  br i1 %48, label %49, label %56

49:                                               ; preds = %45
  %50 = mul nsw i32 %43, %33
  %51 = add nsw i32 %47, %50
  %52 = sext i32 %51 to i64
  %53 = icmp ugt i64 %3, %52
  br i1 %53, label %_ZNK4absl7debian24SpanIfEixEm.exit, label %54

54:                                               ; preds = %49
  tail call void @llvm.trap()
  unreachable

_ZNK4absl7debian24SpanIfEixEm.exit:               ; preds = %49
  %55 = getelementptr inbounds float, ptr %2, i64 %52
  store float 1.000000e+00, ptr %55, align 4
  br label %56

56:                                               ; preds = %_ZNK4absl7debian24SpanIfEixEm.exit, %45, %41
  ret void

57:                                               ; preds = %39, %28, %20
  %.sink = phi ptr [ %15, %39 ], [ %11, %28 ], [ %7, %20 ]
  %.pn = phi { ptr, i32 } [ %40, %39 ], [ %29, %28 ], [ %21, %20 ]
  call void @_ZNSt7__cxx1112basic_stringIcSt11char_traitsIcESaIcEED1Ev(ptr noundef nonnull align 8 dereferenceable(32) %.sink) #24
  resume { ptr, i32 } %.pn
}